target datalayout = "e-m:e-p270:32:32-p271:32:32-p272:64:64-i64:64-i128:128-f80:128-n8:16:32:64-S128"
target triple = "x86_64-unknown-linux-gnu"

%"class.qe::pred_abs" = type { ptr, %class.vector, %class.ref_vector, %class.svector, %class.obj_map, %class.obj_map.2, %class.obj_map.2, %class.obj_map, %class.ref_vector, %class.ref, %class.ptr_vector, %class.obj_map.7, %class.obj_map.12 }
%class.vector = type { ptr }
%class.svector = type { %class.vector.1 }
%class.vector.1 = type { ptr }
%class.obj_map.2 = type { %class.core_hashtable.3 }
%class.core_hashtable.3 = type <{ ptr, i32, i32, i32, [4 x i8] }>
%class.obj_map = type { %class.core_hashtable }
%class.core_hashtable = type <{ ptr, i32, i32, i32, [4 x i8] }>
%class.ref_vector = type { %class.ref_vector_core }
%class.ref_vector_core = type { %class.ref_manager_wrapper, %class.ptr_vector }
%class.ref_manager_wrapper = type { ptr }
%class.ref = type { ptr }
%class.ptr_vector = type { %class.vector.0 }
%class.vector.0 = type { ptr }
%class.obj_map.7 = type { %class.core_hashtable.8 }
%class.core_hashtable.8 = type <{ ptr, i32, i32, i32, [4 x i8] }>
%class.obj_map.12 = type { %class.core_hashtable.13 }
%class.core_hashtable.13 = type <{ ptr, i32, i32, i32, [4 x i8] }>
%class.ref_vector.50 = type { %class.ref_vector_core.51 }
%class.ref_vector_core.51 = type { %class.ref_manager_wrapper.52, %class.ptr_vector.53 }
%class.ref_manager_wrapper.52 = type { ptr }
%class.ptr_vector.53 = type { %class.vector.54 }
%class.vector.54 = type { ptr }
%class.params_ref = type { ptr }
%class.obj_ref = type { ptr, ptr }
%"class.qe::qsat" = type { %class.tactic.base, ptr, %class.params_ref, %"struct.qe::qsat::stats", %class.statistics, %"class.qe::mbproj", %"class.qe::kernel", %"class.qe::kernel", %"class.qe::pred_abs", %class.ref_vector, %class.ref_vector, %class.vector, i32, %class.ref.82, i32, %class.ref_vector.50, %class.ref_vector.50, ptr, ptr, i8, %class.ref.82, %class.obj_ref, %class.inf_eps_rational }
%class.tactic.base = type <{ %"class.user_propagator::core", i32 }>
%"class.user_propagator::core" = type { ptr }
%"struct.qe::qsat::stats" = type { i32 }
%class.statistics = type { %class.svector.77, %class.svector.79 }
%class.svector.77 = type { %class.vector.78 }
%class.vector.78 = type { ptr }
%class.svector.79 = type { %class.vector.80 }
%class.vector.80 = type { ptr }
%"class.qe::mbproj" = type { ptr }
%"class.qe::kernel" = type { ptr, %class.params_ref, %class.ref.81, %class.obj_ref }
%class.ref.81 = type { ptr }
%class.ref.82 = type { ptr }
%class.inf_eps_rational = type { %class.rational, %class.inf_rational }
%class.rational = type { %class.mpq }
%class.mpq = type { %class.mpz, %class.mpz }
%class.mpz = type { i32, i8, ptr }
%class.inf_rational = type { %class.rational, %class.rational }
%"class.qe::qmax" = type { ptr }
%"struct.qe::qmax::imp" = type { %"class.qe::qsat" }

@.str.4 = private unnamed_addr constant [20 x i8] c"qsat num predicates\00", align 1
@.str.53 = private unnamed_addr constant [16 x i8] c"qsat num rounds\00", align 1

; Function Attrs: mustprogress nounwind uwtable
define linkonce_odr hidden noundef i32 @_ZNK14core_hashtableIN7obj_mapI4exprPS1_E13obj_map_entryE8obj_hashINS3_8key_dataEE10default_eqIS6_EE4sizeEv(ptr noundef nonnull align 8 dereferenceable(20) %this) #5 comdat align 2 {
entry:
  %this.addr = alloca ptr, align 8
  store ptr %this, ptr %this.addr, align 8
  %this1 = load ptr, ptr %this.addr, align 8
  %m_size = getelementptr inbounds %class.core_hashtable, ptr %this1, i32 0, i32 2
  %0 = load i32, ptr %m_size, align 4
  ret i32 %0
}

; Function Attrs: mustprogress uwtable
define linkonce_odr hidden noundef i32 @_ZNK7obj_mapI4exprPS0_E4sizeEv(ptr noundef nonnull align 8 dereferenceable(24) %this) #4 comdat align 2 {
entry:
  %this.addr = alloca ptr, align 8
  store ptr %this, ptr %this.addr, align 8
  %this1 = load ptr, ptr %this.addr, align 8
  %m_table = getelementptr inbounds %class.obj_map, ptr %this1, i32 0, i32 0
  %call = call noundef i32 @_ZNK14core_hashtableIN7obj_mapI4exprPS1_E13obj_map_entryE8obj_hashINS3_8key_dataEE10default_eqIS6_EE4sizeEv(ptr noundef nonnull align 8 dereferenceable(20) %m_table)
  ret i32 %call
}

; Function Attrs: mustprogress nounwind uwtable
define linkonce_odr hidden noundef ptr @_ZNK3refI6solverEptEv(ptr noundef nonnull align 8 dereferenceable(8) %this) #5 comdat align 2 {
entry:
  %this.addr = alloca ptr, align 8
  store ptr %this, ptr %this.addr, align 8
  %this1 = load ptr, ptr %this.addr, align 8
  %m_ptr = getelementptr inbounds %class.ref.81, ptr %this1, i32 0, i32 0
  %0 = load ptr, ptr %m_ptr, align 8
  ret ptr %0
}

; Function Attrs: mustprogress nounwind uwtable
define linkonce_odr hidden noundef zeroext i1 @_ZNK3refI6solverEcvbEv(ptr noundef nonnull align 8 dereferenceable(8) %this) #5 comdat align 2 {
entry:
  %this.addr = alloca ptr, align 8
  store ptr %this, ptr %this.addr, align 8
  %this1 = load ptr, ptr %this.addr, align 8
  %m_ptr = getelementptr inbounds %class.ref.81, ptr %this1, i32 0, i32 0
  %0 = load ptr, ptr %m_ptr, align 8
  %cmp = icmp ne ptr %0, null
  ret i1 %cmp
}

; Function Attrs: mustprogress uwtable
define hidden void @_ZNK2qe8pred_abs18collect_statisticsER10statistics(ptr noundef nonnull align 8 dereferenceable(216) %this, ptr noundef nonnull align 8 dereferenceable(16) %st) #4 align 2 {
entry:
  %this.addr = alloca ptr, align 8
  %st.addr = alloca ptr, align 8
  store ptr %this, ptr %this.addr, align 8
  store ptr %st, ptr %st.addr, align 8
  %this1 = load ptr, ptr %this.addr, align 8
  %0 = load ptr, ptr %st.addr, align 8
  %m_pred2lit = getelementptr inbounds %"class.qe::pred_abs", ptr %this1, i32 0, i32 4
  %call = call noundef i32 @_ZNK7obj_mapI4exprPS0_E4sizeEv(ptr noundef nonnull align 8 dereferenceable(24) %m_pred2lit)
  call void @_ZN10statistics6updateEPKcj(ptr noundef nonnull align 8 dereferenceable(16) %0, ptr noundef @.str.4, i32 noundef %call)
  ret void
}

; Function Attrs: mustprogress uwtable
define linkonce_odr hidden void @_ZNK2qe6kernel18collect_statisticsER10statistics(ptr noundef nonnull align 8 dereferenceable(40) %this, ptr noundef nonnull align 8 dereferenceable(16) %st) #4 comdat align 2 {
entry:
  %this.addr = alloca ptr, align 8
  %st.addr = alloca ptr, align 8
  store ptr %this, ptr %this.addr, align 8
  store ptr %st, ptr %st.addr, align 8
  %this1 = load ptr, ptr %this.addr, align 8
  %m_solver = getelementptr inbounds %"class.qe::kernel", ptr %this1, i32 0, i32 2
  %call = call noundef zeroext i1 @_ZNK3refI6solverEcvbEv(ptr noundef nonnull align 8 dereferenceable(8) %m_solver)
  br i1 %call, label %if.then, label %if.end

if.then:                                          ; preds = %entry
  %m_solver2 = getelementptr inbounds %"class.qe::kernel", ptr %this1, i32 0, i32 2
  %call3 = call noundef ptr @_ZNK3refI6solverEptEv(ptr noundef nonnull align 8 dereferenceable(8) %m_solver2)
  %0 = load ptr, ptr %st.addr, align 8
  %vtable = load ptr, ptr %call3, align 8
  %vfn = getelementptr inbounds ptr, ptr %vtable, i64 2
  %1 = load ptr, ptr %vfn, align 8
  call void %1(ptr noundef nonnull align 8 dereferenceable(72) %call3, ptr noundef nonnull align 8 dereferenceable(16) %0)
  br label %if.end

if.end:                                           ; preds = %if.then, %entry
  ret void
}

; Function Attrs: mustprogress uwtable
define linkonce_odr hidden void @_ZNK2qe4qsat18collect_statisticsER10statistics(ptr noundef nonnull align 8 dereferenceable(600) %this, ptr noundef nonnull align 8 dereferenceable(16) %st) unnamed_addr #4 comdat align 2 {
entry:
  %this.addr = alloca ptr, align 8
  %st.addr = alloca ptr, align 8
  store ptr %this, ptr %this.addr, align 8
  store ptr %st, ptr %st.addr, align 8
  %this1 = load ptr, ptr %this.addr, align 8
  %0 = load ptr, ptr %st.addr, align 8
  %m_st = getelementptr inbounds %"class.qe::qsat", ptr %this1, i32 0, i32 4
  call void @_ZN10statistics4copyERKS_(ptr noundef nonnull align 8 dereferenceable(16) %0, ptr noundef nonnull align 8 dereferenceable(16) %m_st)
  %m_fa = getelementptr inbounds %"class.qe::qsat", ptr %this1, i32 0, i32 6
  %1 = load ptr, ptr %st.addr, align 8
  call void @_ZNK2qe6kernel18collect_statisticsER10statistics(ptr noundef nonnull align 8 dereferenceable(40) %m_fa, ptr noundef nonnull align 8 dereferenceable(16) %1)
  %m_ex = getelementptr inbounds %"class.qe::qsat", ptr %this1, i32 0, i32 7
  %2 = load ptr, ptr %st.addr, align 8
  call void @_ZNK2qe6kernel18collect_statisticsER10statistics(ptr noundef nonnull align 8 dereferenceable(40) %m_ex, ptr noundef nonnull align 8 dereferenceable(16) %2)
  %m_pred_abs = getelementptr inbounds %"class.qe::qsat", ptr %this1, i32 0, i32 8
  %3 = load ptr, ptr %st.addr, align 8
  call void @_ZNK2qe8pred_abs18collect_statisticsER10statistics(ptr noundef nonnull align 8 dereferenceable(216) %m_pred_abs, ptr noundef nonnull align 8 dereferenceable(16) %3)
  %4 = load ptr, ptr %st.addr, align 8
  %m_stats = getelementptr inbounds %"class.qe::qsat", ptr %this1, i32 0, i32 3
  %m_num_rounds = getelementptr inbounds %"struct.qe::qsat::stats", ptr %m_stats, i32 0, i32 0
  %5 = load i32, ptr %m_num_rounds, align 8
  call void @_ZN10statistics6updateEPKcj(ptr noundef nonnull align 8 dereferenceable(16) %4, ptr noundef @.str.53, i32 noundef %5)
  %m_pred_abs2 = getelementptr inbounds %"class.qe::qsat", ptr %this1, i32 0, i32 8
  %6 = load ptr, ptr %st.addr, align 8
  call void @_ZNK2qe8pred_abs18collect_statisticsER10statistics(ptr noundef nonnull align 8 dereferenceable(216) %m_pred_abs2, ptr noundef nonnull align 8 dereferenceable(16) %6)
  ret void
}

; Function Attrs: mustprogress uwtable
define hidden void @_ZNK2qe4qmax18collect_statisticsER10statistics(ptr noundef nonnull align 8 dereferenceable(8) %this, ptr noundef nonnull align 8 dereferenceable(16) %st) #4 align 2 {
entry:
  %this.addr = alloca ptr, align 8
  %st.addr = alloca ptr, align 8
  store ptr %this, ptr %this.addr, align 8
  store ptr %st, ptr %st.addr, align 8
  %this1 = load ptr, ptr %this.addr, align 8
  %m_imp = getelementptr inbounds %"class.qe::qmax", ptr %this1, i32 0, i32 0
  %0 = load ptr, ptr %m_imp, align 8
  %m_qsat = getelementptr inbounds %"struct.qe::qmax::imp", ptr %0, i32 0, i32 0
  %1 = load ptr, ptr %st.addr, align 8
  call void @_ZNK2qe4qsat18collect_statisticsER10statistics(ptr noundef nonnull align 8 dereferenceable(600) %m_qsat, ptr noundef nonnull align 8 dereferenceable(16) %1)
  ret void
}