; Function Attrs: mustprogress uwtable
define hidden void @_ZNK2qe4qmax18collect_statisticsER10statistics(ptr nocapture noundef nonnull readonly align 8 dereferenceable(8) %this, ptr noundef nonnull align 8 dereferenceable(16) %st) local_unnamed_addr #3 align 2 {
entry:
  %0 = load ptr, ptr %this, align 8
  %m_st.i = getelementptr inbounds i8, ptr %0, i64 40
  tail call void @_ZN10statistics4copyERKS_(ptr noundef nonnull align 8 dereferenceable(16) %st, ptr noundef nonnull align 8 dereferenceable(16) %m_st.i)
  %m_solver.i.i = getelementptr inbounds i8, ptr %0, i64 80
  %1 = load ptr, ptr %m_solver.i.i, align 8
  %cmp.i.not.i.i = icmp eq ptr %1, null
  br i1 %cmp.i.not.i.i, label %_ZNK2qe6kernel18collect_statisticsER10statistics.exit.i, label %if.then.i.i

if.then.i.i:                                      ; preds = %entry
  %vtable.i.i = load ptr, ptr %1, align 8
  %vfn.i.i = getelementptr inbounds i8, ptr %vtable.i.i, i64 16
  %2 = load ptr, ptr %vfn.i.i, align 8
  tail call void %2(ptr noundef nonnull align 8 dereferenceable(72) %1, ptr noundef nonnull align 8 dereferenceable(16) %st)
  br label %_ZNK2qe6kernel18collect_statisticsER10statistics.exit.i

_ZNK2qe6kernel18collect_statisticsER10statistics.exit.i: ; preds = %if.then.i.i, %entry
  %m_solver.i6.i = getelementptr inbounds i8, ptr %0, i64 120
  %3 = load ptr, ptr %m_solver.i6.i, align 8
  %cmp.i.not.i7.i = icmp eq ptr %3, null
  br i1 %cmp.i.not.i7.i, label %_ZNK2qe4qsat18collect_statisticsER10statistics.exit, label %if.then.i8.i

if.then.i8.i:                                     ; preds = %_ZNK2qe6kernel18collect_statisticsER10statistics.exit.i
  %vtable.i9.i = load ptr, ptr %3, align 8
  %vfn.i10.i = getelementptr inbounds i8, ptr %vtable.i9.i, i64 16
  %4 = load ptr, ptr %vfn.i10.i, align 8
  tail call void %4(ptr noundef nonnull align 8 dereferenceable(72) %3, ptr noundef nonnull align 8 dereferenceable(16) %st)
  br label %_ZNK2qe4qsat18collect_statisticsER10statistics.exit

_ZNK2qe4qsat18collect_statisticsER10statistics.exit: ; preds = %_ZNK2qe6kernel18collect_statisticsER10statistics.exit.i, %if.then.i8.i
  %m_size.i.i.i.i = getelementptr inbounds i8, ptr %0, i64 196
  %5 = load i32, ptr %m_size.i.i.i.i, align 4
  tail call void @_ZN10statistics6updateEPKcj(ptr noundef nonnull align 8 dereferenceable(16) %st, ptr noundef nonnull @.str.4, i32 noundef %5)
  %m_stats.i = getelementptr inbounds i8, ptr %0, i64 32
  %6 = load i32, ptr %m_stats.i, align 8
  tail call void @_ZN10statistics6updateEPKcj(ptr noundef nonnull align 8 dereferenceable(16) %st, ptr noundef nonnull @.str.53, i32 noundef %6)
  %7 = load i32, ptr %m_size.i.i.i.i, align 4
  tail call void @_ZN10statistics6updateEPKcj(ptr noundef nonnull align 8 dereferenceable(16) %st, ptr noundef nonnull @.str.4, i32 noundef %7)
  ret void
}